; Function Attrs: mustprogress nofree norecurse nosync nounwind willreturn memory(none) uwtable
define dso_local range(i32 1, 68) i32 @Curl_uc_to_curlcode(i32 noundef %0) local_unnamed_addr #7 {
  %switch.tableidx = add i32 %0, -5
  %2 = icmp ult i32 %switch.tableidx, 4
  br i1 %2, label %switch.lookup, label %4

switch.lookup:                                    ; preds = %1
  %3 = zext nneg i32 %switch.tableidx to i64
  %switch.gep = getelementptr inbounds nuw [4 x i32], ptr @switch.table.Curl_connect.5, i64 0, i64 %3
  %switch.load = load i32, ptr %switch.gep, align 4
  br label %4

4:                                                ; preds = %switch.lookup, %1
  %.0 = phi i32 [ 3, %1 ], [ %switch.load, %switch.lookup ]
  ret i32 %.0
}